target datalayout = "e-m:e-p270:32:32-p271:32:32-p272:64:64-i64:64-i128:128-f80:128-n8:16:32:64-S128"
target triple = "x86_64-pc-linux-gnu"

%union.int_mv = type { i32 }
%struct.macroblockd_plane = type { i8, i32, i32, %struct.buf_2d, [2 x %struct.buf_2d], ptr, ptr, [8 x [2 x i16]], ptr, i8, i8, [8 x [19 x ptr]], [8 x [19 x ptr]] }
%struct.buf_2d = type { ptr, ptr, i32, i32, i32 }
%struct.macroblockd = type { i32, i32, i32, i8, [3 x %struct.macroblockd_plane], %struct.TileInfo, ptr, i8, i8, i8, i8, ptr, ptr, ptr, ptr, ptr, i32, i32, i32, i32, i32, [2 x ptr], ptr, [3 x ptr], [3 x [32 x i8]], ptr, [32 x i8], ptr, ptr, [32 x i8], [3 x %struct.WienerInfo], [3 x %struct.SgrprojInfo], i8, i8, [29 x [8 x %struct.candidate_mv]], [29 x [8 x i16]], i8, i8, [8 x i8], ptr, i32, [8 x i32], [8 x i32], i32, i32, ptr, ptr, i8, [4 x i8], [4 x i8], [7 x i8], [32768 x i8], %struct.cfl_ctx, [2 x i16], ptr, [2 x ptr] }
%struct.TileInfo = type { i32, i32, i32, i32, i32, i32 }
%struct.WienerInfo = type { [8 x i16], [8 x i16] }
%struct.SgrprojInfo = type { i32, [2 x i32] }
%struct.candidate_mv = type { %union.int_mv, %union.int_mv }
%struct.cfl_ctx = type { [1024 x i16], [1024 x i16], [2 x i32], i32, [2 x [32 x i16]], i32, i32, i32, i32, i32, i32 }

; Function Attrs: nounwind uwtable
define hidden void @av1_reset_loop_filter_delta(ptr noundef %0, i32 noundef %1) #0 {
  %3 = alloca ptr, align 8
  %4 = alloca i32, align 4
  %5 = alloca i32, align 4
  %6 = alloca i32, align 4
  store ptr %0, ptr %3, align 8
  store i32 %1, ptr %4, align 4
  %7 = load ptr, ptr %3, align 8
  %8 = getelementptr inbounds nuw %struct.macroblockd, ptr %7, i32 0, i32 47
  store i8 0, ptr %8, align 16
  %9 = load i32, ptr %4, align 4
  %10 = icmp sgt i32 %9, 1
  %11 = select i1 %10, i32 4, i32 2
  store i32 %11, ptr %5, align 4
  store i32 0, ptr %6, align 4
  br label %12

12:                                               ; preds = %22, %2
  %13 = load i32, ptr %6, align 4
  %14 = load i32, ptr %5, align 4
  %15 = icmp slt i32 %13, %14
  br i1 %15, label %16, label %25

16:                                               ; preds = %12
  %17 = load ptr, ptr %3, align 8
  %18 = getelementptr inbounds nuw %struct.macroblockd, ptr %17, i32 0, i32 48
  %19 = load i32, ptr %6, align 4
  %20 = sext i32 %19 to i64
  %21 = getelementptr inbounds [4 x i8], ptr %18, i64 0, i64 %20
  store i8 0, ptr %21, align 1
  br label %22

22:                                               ; preds = %16
  %23 = load i32, ptr %6, align 4
  %24 = add nsw i32 %23, 1
  store i32 %24, ptr %6, align 4
  br label %12, !llvm.loop !6

25:                                               ; preds = %12
  ret void
}