; Function Attrs: mustprogress nofree norecurse nosync nounwind willreturn memory(argmem: write) uwtable
define hidden void @av1_reset_loop_filter_delta(ptr nocapture noundef writeonly %0, i32 noundef %1) local_unnamed_addr #4 {
  %3 = getelementptr inbounds nuw i8, ptr %0, i64 10752
  store i8 0, ptr %3, align 16
  %.inv = icmp slt i32 %1, 2
  %4 = select i1 %.inv, i64 2, i64 4
  %5 = getelementptr inbounds nuw i8, ptr %0, i64 10753
  tail call void @llvm.memset.p0.i64(ptr noundef nonnull align 1 dereferenceable(2) %5, i8 0, i64 %4, i1 false)
  ret void
}